target datalayout = "e-m:e-p270:32:32-p271:32:32-p272:64:64-i64:64-i128:128-f80:128-n8:16:32:64-S128"
target triple = "x86_64-unknown-linux-gnu"

%"class.std::__shared_count" = type { ptr }
%"class.std::__weak_count" = type { ptr }
%"struct.arrow::io::IOContext" = type { ptr, ptr, i64, %"class.arrow::StopToken" }
%"class.arrow::StopToken" = type { %"class.std::shared_ptr.154" }
%"class.std::shared_ptr.154" = type { %"class.std::__shared_ptr.155" }
%"class.std::__shared_ptr.155" = type { ptr, %"class.std::__shared_count" }
%"class.std::vector.178" = type { %"struct.std::_Vector_base.179" }
%"struct.std::_Vector_base.179" = type { %"struct.std::_Vector_base<arrow::io::ReadRange, std::allocator<arrow::io::ReadRange>>::_Vector_impl" }
%"struct.std::_Vector_base<arrow::io::ReadRange, std::allocator<arrow::io::ReadRange>>::_Vector_impl" = type { %"struct.std::_Vector_base<arrow::io::ReadRange, std::allocator<arrow::io::ReadRange>>::_Vector_impl_data" }
%"struct.std::_Vector_base<arrow::io::ReadRange, std::allocator<arrow::io::ReadRange>>::_Vector_impl_data" = type { ptr, ptr, ptr }
%"class.arrow::io::RandomAccessFile.base" = type { %"class.arrow::io::InputStream.base", %"class.arrow::io::Seekable", %"class.std::unique_ptr.81" }
%"class.arrow::io::InputStream.base" = type { %"class.arrow::io::Readable" }
%"class.arrow::io::Readable" = type { ptr }
%"class.arrow::io::Seekable" = type { ptr }
%"class.std::unique_ptr.81" = type { %"struct.std::__uniq_ptr_data.82" }
%"struct.std::__uniq_ptr_data.82" = type { %"class.std::__uniq_ptr_impl.83" }
%"class.std::__uniq_ptr_impl.83" = type { %"class.std::tuple.84" }
%"class.std::tuple.84" = type { %"struct.std::_Tuple_impl.85" }
%"struct.std::_Tuple_impl.85" = type { %"struct.std::_Head_base.88" }
%"struct.std::_Head_base.88" = type { ptr }
%"class.arrow::io::FileInterface.base" = type <{ ptr, %"class.std::enable_shared_from_this", i32 }>
%"class.std::enable_shared_from_this" = type { %"class.std::weak_ptr" }
%"class.std::weak_ptr" = type { %"class.std::__weak_ptr" }
%"class.std::__weak_ptr" = type { ptr, %"class.std::__weak_count" }
%"class.arrow::ipc::internal::IoRecordedRandomAccessFile" = type { %"class.arrow::io::RandomAccessFile.base", i64, %"class.std::vector.178", i64, i8, %"struct.arrow::io::IOContext", %"class.arrow::io::FileInterface.base" }

; Function Attrs: mustprogress nounwind uwtable
define noundef nonnull align 8 dereferenceable(40) ptr @_ZNK5arrow3ipc8internal26IoRecordedRandomAccessFile10io_contextEv(ptr noundef nonnull align 8 dereferenceable(112) %this) unnamed_addr #1 align 2 {
entry:
  %this.addr = alloca ptr, align 8
  store ptr %this, ptr %this.addr, align 8
  %this1 = load ptr, ptr %this.addr, align 8
  %io_context_ = getelementptr inbounds %"class.arrow::ipc::internal::IoRecordedRandomAccessFile", ptr %this1, i32 0, i32 5
  ret ptr %io_context_
}

; Function Attrs: uwtable
define noundef ptr @_ZTv0_n48_NK5arrow3ipc8internal26IoRecordedRandomAccessFile10io_contextEv(ptr noundef %this) unnamed_addr #6 align 2 {
entry:
  %this.addr = alloca ptr, align 8
  store ptr %this, ptr %this.addr, align 8
  %this1 = load ptr, ptr %this.addr, align 8
  %0 = load ptr, ptr %this1, align 8
  %1 = getelementptr inbounds i8, ptr %0, i64 -48
  %2 = load i64, ptr %1, align 8
  %3 = getelementptr inbounds i8, ptr %this1, i64 %2
  %call = tail call noundef nonnull align 8 dereferenceable(40) ptr @_ZNK5arrow3ipc8internal26IoRecordedRandomAccessFile10io_contextEv(ptr noundef nonnull align 8 dereferenceable(112) %3)
  ret ptr %call
}