; Function Attrs: mustprogress nofree norecurse nosync nounwind willreturn memory(read, inaccessiblemem: none) uwtable
define noundef nonnull ptr @_ZTv0_n48_NK5arrow3ipc8internal26IoRecordedRandomAccessFile10io_contextEv(ptr noundef readonly %this) unnamed_addr #12 align 2 {
entry:
  %0 = load ptr, ptr %this, align 8
  %1 = getelementptr inbounds i8, ptr %0, i64 -48
  %2 = load i64, ptr %1, align 8
  %3 = getelementptr inbounds i8, ptr %this, i64 %2
  %io_context_.i = getelementptr inbounds i8, ptr %3, i64 72
  ret ptr %io_context_.i
}